(dp0
S'mu'
p1
(dp2
S'eta_lt_1p5'
p3
(dp4
S'ptM'
p5
(iWorkspace.HEPHYPythonTools.u_float
u_float
p6
(dp7
S'sigma'
p8
F0.0028163885596783483
sS'val'
p9
F0.13514782812063714
sbsS'ptL'
p10
(iWorkspace.HEPHYPythonTools.u_float
u_float
p11
(dp12
g8
F0.0013142837043341698
sg9
F0.2615332612684999
sbsS'ptVL'
p13
(iWorkspace.HEPHYPythonTools.u_float
u_float
p14
(dp15
g8
F0.001477765339845862
sg9
F0.3539380555174322
sbsS'ptH'
p16
(iWorkspace.HEPHYPythonTools.u_float
u_float
p17
(dp18
g8
F0.0057524950400207765
sg9
F0.07553141362286647
sbsS'>200'
p19
(iWorkspace.HEPHYPythonTools.u_float
u_float
p20
(dp21
g8
F0.05871929144415155
sg9
F0.412934849228873
sbsS'0_3p5'
p22
(iWorkspace.HEPHYPythonTools.u_float
u_float
p23
(dp24
g8
F0.0
sg9
F0.0
sbsS'30-50'
p25
(iWorkspace.HEPHYPythonTools.u_float
u_float
p26
(dp27
g8
F0.009554139203142242
sg9
F0.028980570708718803
sbsS'80-200'
p28
(iWorkspace.HEPHYPythonTools.u_float
u_float
p29
(dp30
g8
F0.002134356358534398
sg9
F0.08904009402444375
sbsS'50-80'
p31
(iWorkspace.HEPHYPythonTools.u_float
u_float
p32
(dp33
g8
F0.00031825343445345114
sg9
F0.04818267026775974
sbssS'eta_gt_1p5'
p34
(dp35
g5
(iWorkspace.HEPHYPythonTools.u_float
u_float
p36
(dp37
g8
F0.0050612616880103215
sg9
F0.16616566829000542
sbsg10
(iWorkspace.HEPHYPythonTools.u_float
u_float
p38
(dp39
g8
F0.0022645299155708803
sg9
F0.2943332490838115
sbsg13
(iWorkspace.HEPHYPythonTools.u_float
u_float
p40
(dp41
g8
F0.002271883824593912
sg9
F0.3830288121117141
sbsg16
(iWorkspace.HEPHYPythonTools.u_float
u_float
p42
(dp43
g8
F0.010128517220934169
sg9
F0.0995453040810017
sbsg19
(iWorkspace.HEPHYPythonTools.u_float
u_float
p44
(dp45
g8
F0.43137392766857074
sg9
F0.1036110108407333
sbsg22
(iWorkspace.HEPHYPythonTools.u_float
u_float
p46
(dp47
g8
F0.0
sg9
F0.0
sbsg25
(iWorkspace.HEPHYPythonTools.u_float
u_float
p48
(dp49
g8
F0.01775416928141784
sg9
F0.03130771535657321
sbsg28
(iWorkspace.HEPHYPythonTools.u_float
u_float
p50
(dp51
g8
F0.005775397583640832
sg9
F0.11414803849922603
sbsg31
(iWorkspace.HEPHYPythonTools.u_float
u_float
p52
(dp53
g8
F0.0006394840377519426
sg9
F0.07699155494010257
sbsssS'el'
p54
(dp55
g3
(dp56
g5
(iWorkspace.HEPHYPythonTools.u_float
u_float
p57
(dp58
g8
F0.0023431802494514723
sg9
F0.14601502459093793
sbsg10
(iWorkspace.HEPHYPythonTools.u_float
u_float
p59
(dp60
g8
F0.0011162297289875817
sg9
F0.16435858915353613
sbsg16
(iWorkspace.HEPHYPythonTools.u_float
u_float
p61
(dp62
g8
F0.003866769614952163
sg9
F0.1017439704934227
sbsg19
(iWorkspace.HEPHYPythonTools.u_float
u_float
p63
(dp64
g8
F0.028974927416329524
sg9
F0.3982373140580748
sbsg25
(iWorkspace.HEPHYPythonTools.u_float
u_float
p65
(dp66
g8
F0.005127994762622478
sg9
F0.08697103241846549
sbsg28
(iWorkspace.HEPHYPythonTools.u_float
u_float
p67
(dp68
g8
F0.011533393545085032
sg9
F0.13625421759831396
sbsS'0_5'
p69
(iWorkspace.HEPHYPythonTools.u_float
u_float
p70
(dp71
g8
F0.0
sg9
F0.0
sbsg31
(iWorkspace.HEPHYPythonTools.u_float
u_float
p72
(dp73
g8
F0.009322541359486868
sg9
F0.08514904897070369
sbssg34
(dp74
g5
(iWorkspace.HEPHYPythonTools.u_float
u_float
p75
(dp76
g8
F0.0031447171241023386
sg9
F0.1909688606334246
sbsg10
(iWorkspace.HEPHYPythonTools.u_float
u_float
p77
(dp78
g8
F0.001892181266693374
sg9
F0.2851815138838274
sbsg16
(iWorkspace.HEPHYPythonTools.u_float
u_float
p79
(dp80
g8
F0.004386971146516056
sg9
F0.13248407031031595
sbsg19
(iWorkspace.HEPHYPythonTools.u_float
u_float
p81
(dp82
g8
F0.02603820222044345
sg9
F0.40616234639255955
sbsg25
(iWorkspace.HEPHYPythonTools.u_float
u_float
p83
(dp84
g8
F0.005096359934515815
sg9
F0.1229837770403799
sbsg28
(iWorkspace.HEPHYPythonTools.u_float
u_float
p85
(dp86
g8
F0.009470693157234818
sg9
F0.20764605202150907
sbsg69
(iWorkspace.HEPHYPythonTools.u_float
u_float
p87
(dp88
g8
F0.0
sg9
F0.0
sbsg31
(iWorkspace.HEPHYPythonTools.u_float
u_float
p89
(dp90
g8
F0.00814514404608765
sg9
F0.161110823043108
sbsss.