(dp0
S'mu'
p1
(dp2
S'eta_lt_1p5'
p3
(dp4
S'ptM'
p5
F0.0028163885596783483
sS'ptL'
p6
F0.0013142837043341698
sS'ptVL'
p7
F0.001477765339845862
sS'ptH'
p8
F0.0057524950400207765
sS'>200'
p9
F0.05871929144415155
sS'0_3p5'
p10
F0.0
sS'30-50'
p11
F0.009554139203142242
sS'80-200'
p12
F0.002134356358534398
sS'50-80'
p13
F0.00031825343445345114
ssS'eta_gt_1p5'
p14
(dp15
g5
F0.0050612616880103215
sg6
F0.0022645299155708803
sg7
F0.002271883824593912
sg8
F0.010128517220934169
sg9
F0.43137392766857074
sg10
F0.0
sg11
F0.01775416928141784
sg12
F0.005775397583640832
sg13
F0.0006394840377519426
sssS'el'
p16
(dp17
g3
(dp18
g5
F0.0023431802494514723
sg6
F0.0011162297289875817
sg8
F0.003866769614952163
sg9
F0.028974927416329524
sg11
F0.005127994762622478
sg12
F0.011533393545085032
sS'0_5'
p19
F0.0
sg13
F0.009322541359486868
ssg14
(dp20
g5
F0.0031447171241023386
sg6
F0.001892181266693374
sg8
F0.004386971146516056
sg9
F0.02603820222044345
sg11
F0.005096359934515815
sg12
F0.009470693157234818
sg19
F0.0
sg13
F0.00814514404608765
sss.