(dp0
S'mu'
p1
(dp2
S'eta_lt_1p5'
p3
(dp4
S'ptM'
p5
(iWorkspace.HEPHYPythonTools.u_float
u_float
p6
(dp7
S'sigma'
p8
F0.005539426738303241
sS'val'
p9
F0.13930479803087306
sbsS'ptL'
p10
(iWorkspace.HEPHYPythonTools.u_float
u_float
p11
(dp12
g8
F0.002555941047893454
sg9
F0.23625882532095135
sbsS'ptVL'
p13
(iWorkspace.HEPHYPythonTools.u_float
u_float
p14
(dp15
g8
F0.002867990812262372
sg9
F0.31545362754959927
sbsS'ptH'
p16
(iWorkspace.HEPHYPythonTools.u_float
u_float
p17
(dp18
g8
F0.008238223564090996
sg9
F0.08180058194632744
sbsS'>200'
p19
(iWorkspace.HEPHYPythonTools.u_float
u_float
p20
(dp21
g8
F0.027345501373363588
sg9
F0.11783939276404606
sbsS'0_3p5'
p22
(iWorkspace.HEPHYPythonTools.u_float
u_float
p23
(dp24
g8
F0.0
sg9
F0.0
sbsS'30-50'
p25
(iWorkspace.HEPHYPythonTools.u_float
u_float
p26
(dp27
g8
F0.010014119136534728
sg9
F0.07203610332079996
sbsS'80-200'
p28
(iWorkspace.HEPHYPythonTools.u_float
u_float
p29
(dp30
g8
F0.018504151593660666
sg9
F0.1171137601683507
sbsS'50-80'
p31
(iWorkspace.HEPHYPythonTools.u_float
u_float
p32
(dp33
g8
F0.006086849402709472
sg9
F0.05295451077507638
sbssS'eta_gt_1p5'
p34
(dp35
g5
(iWorkspace.HEPHYPythonTools.u_float
u_float
p36
(dp37
g8
F0.009618127106799962
sg9
F0.17008437304616703
sbsg10
(iWorkspace.HEPHYPythonTools.u_float
u_float
p38
(dp39
g8
F0.0043574654699179045
sg9
F0.27311137162444193
sbsg13
(iWorkspace.HEPHYPythonTools.u_float
u_float
p40
(dp41
g8
F0.004101335422978842
sg9
F0.36749581863544567
sbsg16
(iWorkspace.HEPHYPythonTools.u_float
u_float
p42
(dp43
g8
F0.016122725766897952
sg9
F0.13202790912197365
sbsg19
(iWorkspace.HEPHYPythonTools.u_float
u_float
p44
(dp45
g8
F0.14335536513961689
sg9
F0.3498372331827334
sbsg22
(iWorkspace.HEPHYPythonTools.u_float
u_float
p46
(dp47
g8
F0.0
sg9
F0.0
sbsg25
(iWorkspace.HEPHYPythonTools.u_float
u_float
p48
(dp49
g8
F0.01658647005573889
sg9
F0.09472526991409926
sbsg28
(iWorkspace.HEPHYPythonTools.u_float
u_float
p50
(dp51
g8
F0.04003810263805336
sg9
F0.17053183371624345
sbsg31
(iWorkspace.HEPHYPythonTools.u_float
u_float
p52
(dp53
g8
F0.013805094727614643
sg9
F0.09028949409065394
sbsssS'el'
p54
(dp55
g3
(dp56
g5
(iWorkspace.HEPHYPythonTools.u_float
u_float
p57
(dp58
g8
F0.00486902283672549
sg9
F0.14367438872131513
sbsg10
(iWorkspace.HEPHYPythonTools.u_float
u_float
p59
(dp60
g8
F0.0020852756599591188
sg9
F0.13932744500492936
sbsg16
(iWorkspace.HEPHYPythonTools.u_float
u_float
p61
(dp62
g8
F0.008323641338593441
sg9
F0.12570578267722363
sbsg19
(iWorkspace.HEPHYPythonTools.u_float
u_float
p63
(dp64
g8
F0.035389951452128136
sg9
F0.4099951130916322
sbsg25
(iWorkspace.HEPHYPythonTools.u_float
u_float
p65
(dp66
g8
F0.008336879479851778
sg9
F0.11296953624343731
sbsg28
(iWorkspace.HEPHYPythonTools.u_float
u_float
p67
(dp68
g8
F0.014635194854393348
sg9
F0.1949210921747227
sbsS'0_5'
p69
(iWorkspace.HEPHYPythonTools.u_float
u_float
p70
(dp71
g8
F0.0
sg9
F0.0
sbsg31
(iWorkspace.HEPHYPythonTools.u_float
u_float
p72
(dp73
g8
F0.011184785074122548
sg9
F0.11648396760687221
sbssg34
(dp74
g5
(iWorkspace.HEPHYPythonTools.u_float
u_float
p75
(dp76
g8
F0.005664814032155016
sg9
F0.17361227309850466
sbsg10
(iWorkspace.HEPHYPythonTools.u_float
u_float
p77
(dp78
g8
F0.003343863077964764
sg9
F0.24197506336892466
sbsg16
(iWorkspace.HEPHYPythonTools.u_float
u_float
p79
(dp80
g8
F0.008090405915195935
sg9
F0.13579465045573075
sbsg19
(iWorkspace.HEPHYPythonTools.u_float
u_float
p81
(dp82
g8
F0.03785537123443327
sg9
F0.44334290765567197
sbsg25
(iWorkspace.HEPHYPythonTools.u_float
u_float
p83
(dp84
g8
F0.008999140700776967
sg9
F0.14076643002483225
sbsg28
(iWorkspace.HEPHYPythonTools.u_float
u_float
p85
(dp86
g8
F0.015077768896375618
sg9
F0.2426035309672078
sbsg69
(iWorkspace.HEPHYPythonTools.u_float
u_float
p87
(dp88
g8
F0.0
sg9
F0.0
sbsg31
(iWorkspace.HEPHYPythonTools.u_float
u_float
p89
(dp90
g8
F0.012781800902335492
sg9
F0.17386065451600557
sbsss.